target datalayout = "e-m:e-p270:32:32-p271:32:32-p272:64:64-i64:64-i128:128-f80:128-n8:16:32:64-S128"
target triple = "x86_64-pc-linux-gnu"

%"class.OpenImageIO::v3_1_0::ColorConfig" = type { %"class.std::unique_ptr" }
%"class.std::unique_ptr" = type { %"struct.std::__uniq_ptr_data" }
%"struct.std::__uniq_ptr_data" = type { %"class.std::__uniq_ptr_impl" }
%"class.std::__uniq_ptr_impl" = type { %"class.std::tuple" }
%"class.std::tuple" = type { %"struct.std::_Tuple_impl" }
%"struct.std::_Tuple_impl" = type { %"struct.std::_Head_base.1" }
%"struct.std::_Head_base.1" = type { ptr }
%"class.OpenImageIO::v3_1_0::basic_string_view" = type { ptr, i64 }

@__dso_handle = external hidden global i8
@_ZZN11OpenImageIO6v3_1_011ColorConfig19default_colorconfigEvE6config = internal global %"class.OpenImageIO::v3_1_0::ColorConfig" zeroinitializer, align 8
@_ZGVZN11OpenImageIO6v3_1_011ColorConfig19default_colorconfigEvE6config = internal global i64 0, align 8
@.str.8 = private unnamed_addr constant [1 x i8] zeroinitializer, align 1
@_ZN11OpenImageIO6v3_1_011ColorConfigC1ENS0_17basic_string_viewIcSt11char_traitsIcEEE = unnamed_addr alias void (ptr, ptr), ptr @_ZN11OpenImageIO6v3_1_011ColorConfigC2ENS0_17basic_string_viewIcSt11char_traitsIcEEE
@_ZN11OpenImageIO6v3_1_011ColorConfigD1Ev = unnamed_addr alias void (ptr), ptr @_ZN11OpenImageIO6v3_1_011ColorConfigD2Ev

; Function Attrs: noinline noreturn nounwind uwtable
define linkonce_odr hidden void @__clang_call_terminate(ptr noundef %0) #13 comdat {
  %2 = call ptr @__cxa_begin_catch(ptr %0) #5
  call void @_ZSt9terminatev() #31
  unreachable
}

; Function Attrs: mustprogress nounwind uwtable
define linkonce_odr noundef i64 @_ZNSt11char_traitsIcE6lengthEPKc(ptr noundef %0) #6 comdat align 2 {
  %2 = alloca ptr, align 8
  store ptr %0, ptr %2, align 8, !tbaa !12
  %3 = load ptr, ptr %2, align 8, !tbaa !12
  %4 = call i64 @strlen(ptr noundef %3) #5
  ret i64 %4
}

; Function Attrs: mustprogress nounwind uwtable
define linkonce_odr hidden void @_ZN11OpenImageIO6v3_1_017basic_string_viewIcSt11char_traitsIcEEC2EPKc(ptr noundef nonnull align 8 dereferenceable(16) %0, ptr noundef %1) unnamed_addr #6 comdat align 2 personality ptr @__gxx_personality_v0 {
  %3 = alloca ptr, align 8
  %4 = alloca ptr, align 8
  store ptr %0, ptr %3, align 8, !tbaa !10
  store ptr %1, ptr %4, align 8, !tbaa !12
  %5 = load ptr, ptr %3, align 8
  %6 = getelementptr inbounds nuw %"class.OpenImageIO::v3_1_0::basic_string_view", ptr %5, i32 0, i32 0
  %7 = load ptr, ptr %4, align 8, !tbaa !12
  store ptr %7, ptr %6, align 8, !tbaa !14
  %8 = getelementptr inbounds nuw %"class.OpenImageIO::v3_1_0::basic_string_view", ptr %5, i32 0, i32 1
  %9 = load ptr, ptr %4, align 8, !tbaa !12
  %10 = icmp ne ptr %9, null
  br i1 %10, label %11, label %15

11:                                               ; preds = %2
  %12 = load ptr, ptr %4, align 8, !tbaa !12
  %13 = invoke noundef i64 @_ZNSt11char_traitsIcE6lengthEPKc(ptr noundef %12)
          to label %14 unwind label %18

14:                                               ; preds = %11
  br label %16

15:                                               ; preds = %2
  br label %16

16:                                               ; preds = %15, %14
  %17 = phi i64 [ %13, %14 ], [ 0, %15 ]
  store i64 %17, ptr %8, align 8, !tbaa !17
  ret void

18:                                               ; preds = %11
  %19 = landingpad { ptr, i32 }
          catch ptr null
  %20 = extractvalue { ptr, i32 } %19, 0
  call void @__clang_call_terminate(ptr %20) #31
  unreachable
}

; Function Attrs: mustprogress uwtable
define noundef nonnull align 8 dereferenceable(8) ptr @_ZN11OpenImageIO6v3_1_011ColorConfig19default_colorconfigEv() #7 align 2 personality ptr @__gxx_personality_v0 {
  %1 = alloca %"class.OpenImageIO::v3_1_0::basic_string_view", align 8
  %2 = alloca ptr, align 8
  %3 = alloca i32, align 4
  %4 = load atomic i8, ptr @_ZGVZN11OpenImageIO6v3_1_011ColorConfig19default_colorconfigEvE6config acquire, align 8
  %5 = icmp eq i8 %4, 0
  br i1 %5, label %6, label %12, !prof !20

6:                                                ; preds = %0
  %7 = call i32 @__cxa_guard_acquire(ptr @_ZGVZN11OpenImageIO6v3_1_011ColorConfig19default_colorconfigEvE6config) #5
  %8 = icmp ne i32 %7, 0
  br i1 %8, label %9, label %12

9:                                                ; preds = %6
  call void @_ZN11OpenImageIO6v3_1_017basic_string_viewIcSt11char_traitsIcEEC2EPKc(ptr noundef nonnull align 8 dereferenceable(16) %1, ptr noundef @.str.8) #5
  invoke void @_ZN11OpenImageIO6v3_1_011ColorConfigC1ENS0_17basic_string_viewIcSt11char_traitsIcEEE(ptr noundef nonnull align 8 dereferenceable(8) @_ZZN11OpenImageIO6v3_1_011ColorConfig19default_colorconfigEvE6config, ptr noundef %1)
          to label %10 unwind label %13

10:                                               ; preds = %9
  %11 = call i32 @__cxa_atexit(ptr @_ZN11OpenImageIO6v3_1_011ColorConfigD1Ev, ptr @_ZZN11OpenImageIO6v3_1_011ColorConfig19default_colorconfigEvE6config, ptr @__dso_handle) #5
  call void @__cxa_guard_release(ptr @_ZGVZN11OpenImageIO6v3_1_011ColorConfig19default_colorconfigEvE6config) #5
  br label %12

12:                                               ; preds = %10, %6, %0
  ret ptr @_ZZN11OpenImageIO6v3_1_011ColorConfig19default_colorconfigEvE6config

13:                                               ; preds = %9
  %14 = landingpad { ptr, i32 }
          cleanup
  %15 = extractvalue { ptr, i32 } %14, 0
  store ptr %15, ptr %2, align 8
  %16 = extractvalue { ptr, i32 } %14, 1
  store i32 %16, ptr %3, align 4
  call void @__cxa_guard_abort(ptr @_ZGVZN11OpenImageIO6v3_1_011ColorConfig19default_colorconfigEvE6config) #5
  br label %17

17:                                               ; preds = %13
  %18 = load ptr, ptr %2, align 8
  %19 = load i32, ptr %3, align 4
  %20 = insertvalue { ptr, i32 } poison, ptr %18, 0
  %21 = insertvalue { ptr, i32 } %20, i32 %19, 1
  resume { ptr, i32 } %21
}

; Function Attrs: mustprogress uwtable
define void @_ZN11OpenImageIO6v3_1_027set_colorspace_rec709_gammaERNS0_9ImageSpecEf(ptr noundef nonnull align 8 dereferenceable(160) %0, float noundef %1) #7 {
  %3 = alloca ptr, align 8
  %4 = alloca float, align 4
  store ptr %0, ptr %3, align 8, !tbaa !390
  store float %1, ptr %4, align 4, !tbaa !384
  %5 = call noundef nonnull align 8 dereferenceable(8) ptr @_ZN11OpenImageIO6v3_1_011ColorConfig19default_colorconfigEv()
  %6 = load ptr, ptr %3, align 8, !tbaa !390
  %7 = load float, ptr %4, align 4, !tbaa !384
  call void @_ZNK11OpenImageIO6v3_1_011ColorConfig27set_colorspace_rec709_gammaERNS0_9ImageSpecEf(ptr noundef nonnull align 8 dereferenceable(8) %5, ptr noundef nonnull align 8 dereferenceable(160) %6, float noundef %7)
  ret void
}