; Function Attrs: mustprogress uwtable
define void @_ZN11OpenImageIO6v3_1_027set_colorspace_rec709_gammaERNS0_9ImageSpecEf(ptr noundef nonnull align 8 dereferenceable(160) %0, float noundef %1) local_unnamed_addr #5 personality ptr @__gxx_personality_v0 {
  %3 = alloca %"class.OpenImageIO::v3_1_0::basic_string_view", align 8
  call void @llvm.lifetime.start.p0(i64 16, ptr nonnull %3)
  %4 = load atomic i8, ptr @_ZGVZN11OpenImageIO6v3_1_011ColorConfig19default_colorconfigEvE6config acquire, align 8
  %5 = icmp eq i8 %4, 0
  br i1 %5, label %6, label %_ZN11OpenImageIO6v3_1_011ColorConfig19default_colorconfigEv.exit, !prof !3

6:                                                ; preds = %2
  %7 = tail call i32 @__cxa_guard_acquire(ptr nonnull @_ZGVZN11OpenImageIO6v3_1_011ColorConfig19default_colorconfigEvE6config) #34
  %.not.i = icmp eq i32 %7, 0
  br i1 %.not.i, label %_ZN11OpenImageIO6v3_1_011ColorConfig19default_colorconfigEv.exit, label %8

8:                                                ; preds = %6
  store ptr @.str.8, ptr %3, align 8, !tbaa !4
  %9 = getelementptr inbounds nuw i8, ptr %3, i64 8
  store i64 0, ptr %9, align 8, !tbaa !11
  invoke void @_ZN11OpenImageIO6v3_1_011ColorConfigC1ENS0_17basic_string_viewIcSt11char_traitsIcEEE(ptr noundef nonnull align 8 dereferenceable(8) @_ZZN11OpenImageIO6v3_1_011ColorConfig19default_colorconfigEvE6config, ptr noundef nonnull %3)
          to label %10 unwind label %12

10:                                               ; preds = %8
  %11 = call i32 @__cxa_atexit(ptr nonnull @_ZN11OpenImageIO6v3_1_011ColorConfigD1Ev, ptr nonnull @_ZZN11OpenImageIO6v3_1_011ColorConfig19default_colorconfigEvE6config, ptr nonnull @__dso_handle) #34
  call void @__cxa_guard_release(ptr nonnull @_ZGVZN11OpenImageIO6v3_1_011ColorConfig19default_colorconfigEvE6config) #34
  br label %_ZN11OpenImageIO6v3_1_011ColorConfig19default_colorconfigEv.exit

12:                                               ; preds = %8
  %13 = landingpad { ptr, i32 }
          cleanup
  call void @__cxa_guard_abort(ptr nonnull @_ZGVZN11OpenImageIO6v3_1_011ColorConfig19default_colorconfigEvE6config) #34
  resume { ptr, i32 } %13

_ZN11OpenImageIO6v3_1_011ColorConfig19default_colorconfigEv.exit: ; preds = %2, %6, %10
  call void @llvm.lifetime.end.p0(i64 16, ptr nonnull %3)
  call void @_ZNK11OpenImageIO6v3_1_011ColorConfig27set_colorspace_rec709_gammaERNS0_9ImageSpecEf(ptr noundef nonnull align 8 dereferenceable(8) @_ZZN11OpenImageIO6v3_1_011ColorConfig19default_colorconfigEvE6config, ptr noundef nonnull align 8 dereferenceable(160) %0, float noundef %1)
  ret void
}